Certificate:
    Data:
        Version: 3 (0x2)
        Serial Number: 1 (0x1)
        Signature Algorithm: sha256WithRSAEncryption
        Issuer: C=BE, ST=Liege, L=Seraing, O=Inpres, OU=Hepl, CN=Bourge Detrembleur/emailAddress=dummy@dummy.com
        Validity
            Not Before: Jan  7 13:32:45 2021 GMT
            Not After : Jan  7 13:32:45 2022 GMT
        Subject: C=BE, ST=Liege, L=Seraing, O=Inpres, OU=Hepl, CN=Bourge Detrembleur
        Subject Public Key Info:
            Public Key Algorithm: dsaEncryption
                pub: 
                    09:7b:a2:6d:2b:a6:e9:49:2f:13:47:ec:11:bf:9c:
                    90:e7:93:fb:27:90:2e:96:18:be:ed:99:ff:24:10:
                    00:5b:c1:d4:b4:21:f0:be:96:75:3d:1a:a4:3b:27:
                    e1:68:66:31:2f:ad:a4:b0:5a:99:8e:70:83:e4:4f:
                    4e:21:18:99:c6:e9:ab:32:b6:46:e4:07:ce:6b:54:
                    9a:14:80:18:44:88:6b:0d:f0:fa:d2:17:61:a5:eb:
                    4a:9f:d5:23:35:b8:b5:ed:0a:8b:3e:74:91:3b:aa:
                    fa:d4:ff:ca:6d:6c:24:b5:d5:88:db:11:69:49:6f:
                    54:47:96:14:b1:6b:57:0f:a6:17:97:ff:92:91:db:
                    cf:1f:6c:92:19:cc:a6:46:f4:8f:9e:58:fb:97:53:
                    76:24:de:53:b3:73:56:6f:24:87:f5:d1:ba:16:91:
                    f1:98:11:b0:1c:13:ee:56:b4:c4:af:e2:62:fc:89:
                    27:60:d7:48:af:6f:16:73:54:c1:05:0d:9c:17:84:
                    aa:a4:8b:aa:97:fa:9d:11:3d:35:ec:d7:94:eb:cf:
                    a6:47:ce:6d:8a:e4:7a:05:62:30:df:28:1d:eb:42:
                    91:a0:e2:c6:e5:05:35:79:68:23:b3:1c:b1:a1:ef:
                    5a:74:a0:98:be:70:bb:d6:75:c8:0a:fe:37:7f:8d:
                    5e
                P:   
                    00:8f:79:35:d9:b9:aa:e9:bf:ab:ed:88:7a:cf:49:
                    51:b6:f3:2e:c5:9e:3b:af:37:18:e8:ea:c4:96:1f:
                    3e:fd:36:06:e7:43:51:a9:c4:18:33:39:b8:09:e7:
                    c2:ae:1c:53:9b:a7:47:5b:85:d0:11:ad:b8:b4:79:
                    87:75:49:84:69:5c:ac:0e:8f:14:b3:36:08:28:a2:
                    2f:fa:27:11:0a:3d:62:a9:93:45:34:09:a0:fe:69:
                    6c:46:58:f8:4b:dd:20:81:9c:37:09:a0:10:57:b1:
                    95:ad:cd:00:23:3d:ba:54:84:b6:29:1f:9d:64:8e:
                    f8:83:44:86:77:97:9c:ec:04:b4:34:a6:ac:2e:75:
                    e9:98:5d:e2:3d:b0:29:2f:c1:11:8c:9f:fa:9d:81:
                    81:e7:33:8d:b7:92:b7:30:d7:b9:e3:49:59:2f:68:
                    09:98:72:15:39:15:ea:3d:6b:8b:46:53:c6:33:45:
                    8f:80:3b:32:a4:c2:e0:f2:72:90:25:6e:4e:3f:8a:
                    3b:08:38:a1:c4:50:e4:e1:8c:1a:29:a3:7d:df:5e:
                    a1:43:de:4b:66:ff:04:90:3e:d5:cf:16:23:e1:58:
                    d4:87:c6:08:e9:7f:21:1c:d8:1d:ca:23:cb:6e:38:
                    07:65:f8:22:e3:42:be:48:4c:05:76:39:39:60:1c:
                    d6:67
                Q:   
                    00:ba:f6:96:a6:85:78:f7:df:de:e7:fa:67:c9:77:
                    c7:85:ef:32:b2:33:ba:e5:80:c0:bc:d5:69:5d
                G:   
                    16:a6:5c:58:20:48:50:70:4e:75:02:a3:97:57:04:
                    0d:34:da:3a:34:78:c1:54:d4:e4:a5:c0:2d:24:2e:
                    e0:4f:96:e6:1e:4b:d0:90:4a:bd:ac:8f:37:ee:b1:
                    e0:9f:31:82:d2:3c:90:43:cb:64:2f:88:00:41:60:
                    ed:f9:ca:09:b3:20:76:a7:9c:32:a6:27:f2:47:3e:
                    91:87:9b:a2:c4:e7:44:bd:20:81:54:4c:b5:5b:80:
                    2c:36:8d:1f:a8:3e:d4:89:e9:4e:0f:a0:68:8e:32:
                    42:8a:5c:78:c4:78:c6:8d:05:27:b7:1c:9a:3a:bb:
                    0b:0b:e1:2c:44:68:96:39:e7:d3:ce:74:db:10:1a:
                    65:aa:2b:87:f6:4c:68:26:db:3e:c7:2f:4b:55:99:
                    83:4b:b4:ed:b0:2f:7c:90:e9:a4:96:d3:a5:5d:53:
                    5b:eb:fc:45:d4:f6:19:f6:3f:3d:ed:bb:87:39:25:
                    c2:f2:24:e0:77:31:29:6d:a8:87:ec:1e:47:48:f8:
                    7e:fb:5f:de:b7:54:84:31:6b:22:32:de:e5:53:dd:
                    af:02:11:2b:0d:1f:02:da:30:97:32:24:fe:27:ae:
                    da:8b:9d:4b:29:22:d9:ba:8b:e3:9e:d9:e1:03:a6:
                    3c:52:81:0b:c6:88:b7:e2:ed:43:16:e1:ef:17:db:
                    de
        X509v3 extensions:
            X509v3 Basic Constraints: 
                CA:FALSE
            Netscape Comment: 
                OpenSSL Generated Certificate
            X509v3 Subject Key Identifier: 
                A5:F4:2B:E1:E9:ED:B9:12:FE:CB:94:D2:5F:A4:CC:75:00:20:81:03
            X509v3 Authority Key Identifier: 
                keyid:FA:BE:B0:74:8D:33:A6:D5:A7:7D:C2:83:9C:37:D6:17:E3:10:78:7D

    Signature Algorithm: sha256WithRSAEncryption
         d5:ef:f1:a1:00:4e:78:2e:96:d5:db:76:fb:32:a3:bf:6c:04:
         ac:9a:95:62:06:2e:ca:6b:86:97:ca:11:2f:86:ac:a6:57:f9:
         cc:99:39:e1:bd:da:11:ee:4f:1e:c5:c9:a9:f7:5c:dd:52:30:
         4b:fa:6d:2e:b7:b6:d0:23:9e:2f:06:4c:c8:c7:c8:1b:81:ae:
         b2:32:eb:dc:de:94:84:8e:69:43:9f:b0:6c:99:d7:50:aa:aa:
         2e:b7:0e:d7:3d:f4:a8:71:6b:3d:d0:19:97:5c:ab:a9:e0:38:
         41:59:af:c2:54:ff:22:f3:4e:e1:d8:89:60:d5:22:8d:42:b0:
         15:16
-----BEGIN CERTIFICATE-----
MIIFjjCCBPegAwIBAgIBATANBgkqhkiG9w0BAQsFADCBjDELMAkGA1UEBhMCQkUx
DjAMBgNVBAgMBUxpZWdlMRAwDgYDVQQHDAdTZXJhaW5nMQ8wDQYDVQQKDAZJbnBy
ZXMxDTALBgNVBAsMBEhlcGwxGzAZBgNVBAMMEkJvdXJnZSBEZXRyZW1ibGV1cjEe
MBwGCSqGSIb3DQEJARYPZHVtbXlAZHVtbXkuY29tMB4XDTIxMDEwNzEzMzI0NVoX
DTIyMDEwNzEzMzI0NVowbDELMAkGA1UEBhMCQkUxDjAMBgNVBAgTBUxpZWdlMRAw
DgYDVQQHEwdTZXJhaW5nMQ8wDQYDVQQKEwZJbnByZXMxDTALBgNVBAsTBEhlcGwx
GzAZBgNVBAMTEkJvdXJnZSBEZXRyZW1ibGV1cjCCA0IwggI1BgcqhkjOOAQBMIIC
KAKCAQEAj3k12bmq6b+r7Yh6z0lRtvMuxZ47rzcY6OrElh8+/TYG50NRqcQYMzm4
CefCrhxTm6dHW4XQEa24tHmHdUmEaVysDo8UszYIKKIv+icRCj1iqZNFNAmg/mls
Rlj4S90ggZw3CaAQV7GVrc0AIz26VIS2KR+dZI74g0SGd5ec7AS0NKasLnXpmF3i
PbApL8ERjJ/6nYGB5zONt5K3MNe540lZL2gJmHIVORXqPWuLRlPGM0WPgDsypMLg
8nKQJW5OP4o7CDihxFDk4YwaKaN9316hQ95LZv8EkD7VzxYj4VjUh8YI6X8hHNgd
yiPLbjgHZfgi40K+SEwFdjk5YBzWZwIdALr2lqaFePff3uf6Z8l3x4XvMrIzuuWA
wLzVaV0CggEAFqZcWCBIUHBOdQKjl1cEDTTaOjR4wVTU5KXALSQu4E+W5h5L0JBK
vayPN+6x4J8xgtI8kEPLZC+IAEFg7fnKCbMgdqecMqYn8kc+kYebosTnRL0ggVRM
tVuALDaNH6g+1InpTg+gaI4yQopceMR4xo0FJ7ccmjq7CwvhLERoljnn08502xAa
Zaorh/ZMaCbbPscvS1WZg0u07bAvfJDppJbTpV1TW+v8RdT2GfY/Pe27hzklwvIk
4HcxKW2oh+weR0j4fvtf3rdUhDFrIjLe5VPdrwIRKw0fAtowlzIk/ieu2oudSyki
2bqL457Z4QOmPFKBC8aIt+LtQxbh7xfb3gOCAQUAAoIBAAl7om0rpulJLxNH7BG/
nJDnk/snkC6WGL7tmf8kEABbwdS0IfC+lnU9GqQ7J+FoZjEvraSwWpmOcIPkT04h
GJnG6asytkbkB85rVJoUgBhEiGsN8PrSF2Gl60qf1SM1uLXtCos+dJE7qvrU/8pt
bCS11YjbEWlJb1RHlhSxa1cPpheX/5KR288fbJIZzKZG9I+eWPuXU3Yk3lOzc1Zv
JIf10boWkfGYEbAcE+5WtMSv4mL8iSdg10ivbxZzVMEFDZwXhKqki6qX+p0RPTXs
15Trz6ZHzm2K5HoFYjDfKB3rQpGg4sblBTV5aCOzHLGh71p0oJi+cLvWdcgK/jd/
jV6jezB5MAkGA1UdEwQCMAAwLAYJYIZIAYb4QgENBB8WHU9wZW5TU0wgR2VuZXJh
dGVkIENlcnRpZmljYXRlMB0GA1UdDgQWBBSl9Cvh6e25Ev7LlNJfpMx1ACCBAzAf
BgNVHSMEGDAWgBT6vrB0jTOm1ad9woOcN9YX4xB4fTANBgkqhkiG9w0BAQsFAAOB
gQDV7/GhAE54LpbV23b7MqO/bASsmpViBi7Ka4aXyhEvhqymV/nMmTnhvdoR7k8e
xcmp91zdUjBL+m0ut7bQI54vBkzIx8gbga6yMuvc3pSEjmlDn7BsmddQqqoutw7X
PfSocWs90BmXXKup4DhBWa/CVP8i807h2Ilg1SKNQrAVFg==
-----END CERTIFICATE-----
