Certificate:
    Data:
        Version: 3 (0x2)
        Serial Number: 2 (0x2)
        Signature Algorithm: sha256WithRSAEncryption
        Issuer: C=BE, ST=Liege, L=Seraing, O=Inpres, OU=Hepl, CN=Bourge Detrembleur/emailAddress=dummy@dummy.com
        Validity
            Not Before: Jan  7 13:55:56 2021 GMT
            Not After : Jan  7 13:55:56 2022 GMT
        Subject: C=BE, ST=Liege, L=Seraing, O=Inpres server, OU=Hepl server, CN=Bourge Detrembleur
        Subject Public Key Info:
            Public Key Algorithm: dsaEncryption
                pub: 
                    13:a4:08:8a:05:7e:46:a4:fc:ec:4f:8b:f4:aa:4c:
                    9c:34:a3:83:d8:92:e7:bb:b1:cc:f4:d6:e7:e7:75:
                    0d:31:4c:73:c4:14:32:cd:a4:a2:46:c9:e7:e9:70:
                    20:75:43:16:05:f4:6e:59:8e:75:39:17:3b:2b:11:
                    6e:f4:a9:f9:e5:3b:2d:25:4d:c4:ba:ab:5a:d9:c7:
                    a4:89:3b:c7:96:a9:d7:d3:c9:c9:68:aa:c9:8e:10:
                    31:fd:4c:0b:81:84:46:9c:09:81:ca:4e:94:2d:21:
                    13:c0:d5:07:53:80:ac:79:84:49:2f:87:21:d2:36:
                    4d:dd:4b:e4:a5:1b:60:94:05:46:f7:3a:55:b2:e7:
                    b5:64:90:d4:be:e9:57:3d:d6:39:ff:e8:12:31:bc:
                    e6:53:36:0d:2b:0f:bb:49:bc:84:22:65:ca:c1:5e:
                    1d:49:34:9e:d2:3e:37:85:34:89:15:48:96:39:00:
                    d7:62:85:93:f7:0c:7d:f8:89:7c:87:95:e3:49:8c:
                    c0:ba:b4:02:1e:78:4f:23:38:bd:41:3c:bd:be:6a:
                    bb:3b:f8:f3:1d:fd:24:e7:8c:0a:43:e1:ac:4e:44:
                    ff:6c:2c:39:30:eb:fb:17:33:aa:96:7a:8b:82:b4:
                    4f:04:f3:1c:51:da:59:02:8f:6e:25:9d:a5:da:d4:
                    24
                P:   
                    00:8f:79:35:d9:b9:aa:e9:bf:ab:ed:88:7a:cf:49:
                    51:b6:f3:2e:c5:9e:3b:af:37:18:e8:ea:c4:96:1f:
                    3e:fd:36:06:e7:43:51:a9:c4:18:33:39:b8:09:e7:
                    c2:ae:1c:53:9b:a7:47:5b:85:d0:11:ad:b8:b4:79:
                    87:75:49:84:69:5c:ac:0e:8f:14:b3:36:08:28:a2:
                    2f:fa:27:11:0a:3d:62:a9:93:45:34:09:a0:fe:69:
                    6c:46:58:f8:4b:dd:20:81:9c:37:09:a0:10:57:b1:
                    95:ad:cd:00:23:3d:ba:54:84:b6:29:1f:9d:64:8e:
                    f8:83:44:86:77:97:9c:ec:04:b4:34:a6:ac:2e:75:
                    e9:98:5d:e2:3d:b0:29:2f:c1:11:8c:9f:fa:9d:81:
                    81:e7:33:8d:b7:92:b7:30:d7:b9:e3:49:59:2f:68:
                    09:98:72:15:39:15:ea:3d:6b:8b:46:53:c6:33:45:
                    8f:80:3b:32:a4:c2:e0:f2:72:90:25:6e:4e:3f:8a:
                    3b:08:38:a1:c4:50:e4:e1:8c:1a:29:a3:7d:df:5e:
                    a1:43:de:4b:66:ff:04:90:3e:d5:cf:16:23:e1:58:
                    d4:87:c6:08:e9:7f:21:1c:d8:1d:ca:23:cb:6e:38:
                    07:65:f8:22:e3:42:be:48:4c:05:76:39:39:60:1c:
                    d6:67
                Q:   
                    00:ba:f6:96:a6:85:78:f7:df:de:e7:fa:67:c9:77:
                    c7:85:ef:32:b2:33:ba:e5:80:c0:bc:d5:69:5d
                G:   
                    16:a6:5c:58:20:48:50:70:4e:75:02:a3:97:57:04:
                    0d:34:da:3a:34:78:c1:54:d4:e4:a5:c0:2d:24:2e:
                    e0:4f:96:e6:1e:4b:d0:90:4a:bd:ac:8f:37:ee:b1:
                    e0:9f:31:82:d2:3c:90:43:cb:64:2f:88:00:41:60:
                    ed:f9:ca:09:b3:20:76:a7:9c:32:a6:27:f2:47:3e:
                    91:87:9b:a2:c4:e7:44:bd:20:81:54:4c:b5:5b:80:
                    2c:36:8d:1f:a8:3e:d4:89:e9:4e:0f:a0:68:8e:32:
                    42:8a:5c:78:c4:78:c6:8d:05:27:b7:1c:9a:3a:bb:
                    0b:0b:e1:2c:44:68:96:39:e7:d3:ce:74:db:10:1a:
                    65:aa:2b:87:f6:4c:68:26:db:3e:c7:2f:4b:55:99:
                    83:4b:b4:ed:b0:2f:7c:90:e9:a4:96:d3:a5:5d:53:
                    5b:eb:fc:45:d4:f6:19:f6:3f:3d:ed:bb:87:39:25:
                    c2:f2:24:e0:77:31:29:6d:a8:87:ec:1e:47:48:f8:
                    7e:fb:5f:de:b7:54:84:31:6b:22:32:de:e5:53:dd:
                    af:02:11:2b:0d:1f:02:da:30:97:32:24:fe:27:ae:
                    da:8b:9d:4b:29:22:d9:ba:8b:e3:9e:d9:e1:03:a6:
                    3c:52:81:0b:c6:88:b7:e2:ed:43:16:e1:ef:17:db:
                    de
        X509v3 extensions:
            X509v3 Basic Constraints: 
                CA:FALSE
            Netscape Comment: 
                OpenSSL Generated Certificate
            X509v3 Subject Key Identifier: 
                71:67:C4:CE:92:6B:21:77:54:55:02:92:5E:DA:A7:82:00:62:F3:F8
            X509v3 Authority Key Identifier: 
                keyid:FA:BE:B0:74:8D:33:A6:D5:A7:7D:C2:83:9C:37:D6:17:E3:10:78:7D

    Signature Algorithm: sha256WithRSAEncryption
         50:48:3e:df:65:3e:47:c2:69:64:6b:13:3c:10:d9:9f:c2:d5:
         7a:30:a1:16:4c:e1:a7:71:af:3e:be:c2:36:4f:0b:87:9e:13:
         01:2a:39:4d:9c:33:bb:95:da:7c:de:e2:4d:30:dd:8c:c1:1a:
         e0:06:6c:47:42:0a:ca:fd:d7:ee:91:ef:3e:5c:ce:54:b6:0f:
         e6:5c:20:51:31:54:ed:48:1b:a8:32:da:e5:7c:52:50:76:a2:
         bc:57:e8:ef:04:50:d9:de:c9:b2:8a:16:23:df:58:4b:a9:7f:
         34:e9:c1:0e:a4:0a:64:6a:be:71:fb:cb:40:0f:2a:81:04:31:
         1f:42
-----BEGIN CERTIFICATE-----
MIIFnDCCBQWgAwIBAgIBAjANBgkqhkiG9w0BAQsFADCBjDELMAkGA1UEBhMCQkUx
DjAMBgNVBAgMBUxpZWdlMRAwDgYDVQQHDAdTZXJhaW5nMQ8wDQYDVQQKDAZJbnBy
ZXMxDTALBgNVBAsMBEhlcGwxGzAZBgNVBAMMEkJvdXJnZSBEZXRyZW1ibGV1cjEe
MBwGCSqGSIb3DQEJARYPZHVtbXlAZHVtbXkuY29tMB4XDTIxMDEwNzEzNTU1NloX
DTIyMDEwNzEzNTU1NlowejELMAkGA1UEBhMCQkUxDjAMBgNVBAgTBUxpZWdlMRAw
DgYDVQQHEwdTZXJhaW5nMRYwFAYDVQQKEw1JbnByZXMgc2VydmVyMRQwEgYDVQQL
EwtIZXBsIHNlcnZlcjEbMBkGA1UEAxMSQm91cmdlIERldHJlbWJsZXVyMIIDQjCC
AjUGByqGSM44BAEwggIoAoIBAQCPeTXZuarpv6vtiHrPSVG28y7FnjuvNxjo6sSW
Hz79NgbnQ1GpxBgzObgJ58KuHFObp0dbhdARrbi0eYd1SYRpXKwOjxSzNggooi/6
JxEKPWKpk0U0CaD+aWxGWPhL3SCBnDcJoBBXsZWtzQAjPbpUhLYpH51kjviDRIZ3
l5zsBLQ0pqwudemYXeI9sCkvwRGMn/qdgYHnM423krcw17njSVkvaAmYchU5Feo9
a4tGU8YzRY+AOzKkwuDycpAlbk4/ijsIOKHEUOThjBopo33fXqFD3ktm/wSQPtXP
FiPhWNSHxgjpfyEc2B3KI8tuOAdl+CLjQr5ITAV2OTlgHNZnAh0AuvaWpoV499/e
5/pnyXfHhe8ysjO65YDAvNVpXQKCAQAWplxYIEhQcE51AqOXVwQNNNo6NHjBVNTk
pcAtJC7gT5bmHkvQkEq9rI837rHgnzGC0jyQQ8tkL4gAQWDt+coJsyB2p5wypify
Rz6Rh5uixOdEvSCBVEy1W4AsNo0fqD7UielOD6BojjJCilx4xHjGjQUntxyaOrsL
C+EsRGiWOefTznTbEBplqiuH9kxoJts+xy9LVZmDS7TtsC98kOmkltOlXVNb6/xF
1PYZ9j897buHOSXC8iTgdzEpbaiH7B5HSPh++1/et1SEMWsiMt7lU92vAhErDR8C
2jCXMiT+J67ai51LKSLZuovjntnhA6Y8UoELxoi34u1DFuHvF9veA4IBBQACggEA
E6QIigV+RqT87E+L9KpMnDSjg9iS57uxzPTW5+d1DTFMc8QUMs2kokbJ5+lwIHVD
FgX0blmOdTkXOysRbvSp+eU7LSVNxLqrWtnHpIk7x5ap19PJyWiqyY4QMf1MC4GE
RpwJgcpOlC0hE8DVB1OArHmESS+HIdI2Td1L5KUbYJQFRvc6VbLntWSQ1L7pVz3W
Of/oEjG85lM2DSsPu0m8hCJlysFeHUk0ntI+N4U0iRVIljkA12KFk/cMffiJfIeV
40mMwLq0Ah54TyM4vUE8vb5quzv48x39JOeMCkPhrE5E/2wsOTDr+xczqpZ6i4K0
TwTzHFHaWQKPbiWdpdrUJKN7MHkwCQYDVR0TBAIwADAsBglghkgBhvhCAQ0EHxYd
T3BlblNTTCBHZW5lcmF0ZWQgQ2VydGlmaWNhdGUwHQYDVR0OBBYEFHFnxM6SayF3
VFUCkl7ap4IAYvP4MB8GA1UdIwQYMBaAFPq+sHSNM6bVp33Cg5w31hfjEHh9MA0G
CSqGSIb3DQEBCwUAA4GBAFBIPt9lPkfCaWRrEzwQ2Z/C1XowoRZM4adxrz6+wjZP
C4eeEwEqOU2cM7uV2nze4k0w3YzBGuAGbEdCCsr91+6R7z5czlS2D+ZcIFExVO1I
G6gy2uV8UlB2orxX6O8EUNneybKKFiPfWEupfzTpwQ6kCmRqvnH7y0APKoEEMR9C
-----END CERTIFICATE-----
